; ModuleID = '29/17.c'
source_filename = "29/17.c"
target datalayout = "e-m:e-p270:32:32-p271:32:32-p272:64:64-i64:64-f80:128-n8:16:32:64-S128"
target triple = "x86_64-pc-linux-gnu"

@.str = private unnamed_addr constant [3 x i8] c"%d\00", align 1
@.str.1 = private unnamed_addr constant [7 x i8] c"%.3lf\0A\00", align 1

; Function Attrs: noinline nounwind uwtable
define dso_local i32 @main() #0 {
  %1 = alloca i32, align 4
  %2 = alloca [10000 x double], align 16
  %3 = alloca [10000 x double], align 16
  %4 = alloca double, align 8
  %5 = alloca i32, align 4
  %6 = alloca i32, align 4
  %7 = alloca i32, align 4
  %8 = alloca i32, align 4
  store i32 0, i32* %1, align 4
  %9 = getelementptr inbounds [10000 x double], [10000 x double]* %2, i64 0, i64 0
  store double 2.000000e+00, double* %9, align 16
  %10 = getelementptr inbounds [10000 x double], [10000 x double]* %3, i64 0, i64 0
  store double 1.000000e+00, double* %10, align 16
  %11 = getelementptr inbounds [10000 x double], [10000 x double]* %2, i64 0, i64 0
  %12 = load double, double* %11, align 16
  %13 = getelementptr inbounds [10000 x double], [10000 x double]* %3, i64 0, i64 0
  %14 = load double, double* %13, align 16
  %15 = fdiv double %12, %14
  store double %15, double* %4, align 8
  store i32 0, i32* %8, align 4
  %16 = call i32 (i8*, ...) @__isoc99_scanf(i8* getelementptr inbounds ([3 x i8], [3 x i8]* @.str, i64 0, i64 0), i32* %5)
  br label %17

17:                                               ; preds = %64, %0
  %18 = load i32, i32* %8, align 4
  %19 = load i32, i32* %5, align 4
  %20 = icmp slt i32 %18, %19
  br i1 %20, label %21, label %74

21:                                               ; preds = %17
  %22 = call i32 (i8*, ...) @__isoc99_scanf(i8* getelementptr inbounds ([3 x i8], [3 x i8]* @.str, i64 0, i64 0), i32* %6)
  store i32 1, i32* %7, align 4
  br label %23

23:                                               ; preds = %61, %21
  %24 = load i32, i32* %7, align 4
  %25 = load i32, i32* %6, align 4
  %26 = icmp slt i32 %24, %25
  br i1 %26, label %27, label %64

27:                                               ; preds = %23
  %28 = load i32, i32* %7, align 4
  %29 = sub nsw i32 %28, 1
  %30 = sext i32 %29 to i64
  %31 = getelementptr inbounds [10000 x double], [10000 x double]* %2, i64 0, i64 %30
  %32 = load double, double* %31, align 8
  %33 = load i32, i32* %7, align 4
  %34 = sub nsw i32 %33, 1
  %35 = sext i32 %34 to i64
  %36 = getelementptr inbounds [10000 x double], [10000 x double]* %3, i64 0, i64 %35
  %37 = load double, double* %36, align 8
  %38 = fadd double %32, %37
  %39 = load i32, i32* %7, align 4
  %40 = sext i32 %39 to i64
  %41 = getelementptr inbounds [10000 x double], [10000 x double]* %2, i64 0, i64 %40
  store double %38, double* %41, align 8
  %42 = load i32, i32* %7, align 4
  %43 = sub nsw i32 %42, 1
  %44 = sext i32 %43 to i64
  %45 = getelementptr inbounds [10000 x double], [10000 x double]* %2, i64 0, i64 %44
  %46 = load double, double* %45, align 8
  %47 = load i32, i32* %7, align 4
  %48 = sext i32 %47 to i64
  %49 = getelementptr inbounds [10000 x double], [10000 x double]* %3, i64 0, i64 %48
  store double %46, double* %49, align 8
  %50 = load i32, i32* %7, align 4
  %51 = sext i32 %50 to i64
  %52 = getelementptr inbounds [10000 x double], [10000 x double]* %2, i64 0, i64 %51
  %53 = load double, double* %52, align 8
  %54 = load i32, i32* %7, align 4
  %55 = sext i32 %54 to i64
  %56 = getelementptr inbounds [10000 x double], [10000 x double]* %3, i64 0, i64 %55
  %57 = load double, double* %56, align 8
  %58 = fdiv double %53, %57
  %59 = load double, double* %4, align 8
  %60 = fadd double %59, %58
  store double %60, double* %4, align 8
  br label %61

61:                                               ; preds = %27
  %62 = load i32, i32* %7, align 4
  %63 = add nsw i32 %62, 1
  store i32 %63, i32* %7, align 4
  br label %23

64:                                               ; preds = %23
  %65 = load double, double* %4, align 8
  %66 = call i32 (i8*, ...) @printf(i8* getelementptr inbounds ([7 x i8], [7 x i8]* @.str.1, i64 0, i64 0), double %65)
  %67 = load i32, i32* %8, align 4
  %68 = add nsw i32 %67, 1
  store i32 %68, i32* %8, align 4
  %69 = getelementptr inbounds [10000 x double], [10000 x double]* %2, i64 0, i64 0
  %70 = load double, double* %69, align 16
  %71 = getelementptr inbounds [10000 x double], [10000 x double]* %3, i64 0, i64 0
  %72 = load double, double* %71, align 16
  %73 = fdiv double %70, %72
  store double %73, double* %4, align 8
  br label %17

74:                                               ; preds = %17
  ret i32 0
}

declare dso_local i32 @__isoc99_scanf(i8*, ...) #1

declare dso_local i32 @printf(i8*, ...) #1


!llvm.module.flags = !{!0}
!llvm.ident = !{!1}

!0 = !{i32 1, !"wchar_size", i32 4}
!1 = !{!"clang version 10.0.0-4ubuntu1 "}
